target datalayout = "e-m:e-p270:32:32-p271:32:32-p272:64:64-i64:64-i128:128-f80:128-n8:16:32:64-S128"
target triple = "x86_64-pc-linux-gnu"

%struct.MXFCodecUL = type { [16 x i8], i32, i32, ptr, i32, i32 }

; Function Attrs: nounwind uwtable
define internal i32 @mxf_match_uid(ptr noundef %0, ptr noundef %1, i32 noundef %2) #0 {
  %4 = alloca i32, align 4
  %5 = alloca ptr, align 8
  %6 = alloca ptr, align 8
  %7 = alloca i32, align 4
  %8 = alloca i32, align 4
  %9 = alloca i32, align 4
  store ptr %0, ptr %5, align 8, !tbaa !13
  store ptr %1, ptr %6, align 8, !tbaa !13
  store i32 %2, ptr %7, align 4, !tbaa !47
  call void @llvm.lifetime.start.p0(i64 4, ptr %8) #13
  store i32 0, ptr %8, align 4, !tbaa !47
  br label %10

10:                                               ; preds = %33, %3
  %11 = load i32, ptr %8, align 4, !tbaa !47
  %12 = load i32, ptr %7, align 4, !tbaa !47
  %13 = icmp slt i32 %11, %12
  br i1 %13, label %14, label %36

14:                                               ; preds = %10
  %15 = load i32, ptr %8, align 4, !tbaa !47
  %16 = icmp ne i32 %15, 7
  br i1 %16, label %17, label %32

17:                                               ; preds = %14
  %18 = load ptr, ptr %5, align 8, !tbaa !13
  %19 = load i32, ptr %8, align 4, !tbaa !47
  %20 = sext i32 %19 to i64
  %21 = getelementptr inbounds i8, ptr %18, i64 %20
  %22 = load i8, ptr %21, align 1, !tbaa !15
  %23 = zext i8 %22 to i32
  %24 = load ptr, ptr %6, align 8, !tbaa !13
  %25 = load i32, ptr %8, align 4, !tbaa !47
  %26 = sext i32 %25 to i64
  %27 = getelementptr inbounds i8, ptr %24, i64 %26
  %28 = load i8, ptr %27, align 1, !tbaa !15
  %29 = zext i8 %28 to i32
  %30 = icmp ne i32 %23, %29
  br i1 %30, label %31, label %32

31:                                               ; preds = %17
  store i32 0, ptr %4, align 4
  store i32 1, ptr %9, align 4
  br label %37

32:                                               ; preds = %17, %14
  br label %33

33:                                               ; preds = %32
  %34 = load i32, ptr %8, align 4, !tbaa !47
  %35 = add nsw i32 %34, 1
  store i32 %35, ptr %8, align 4, !tbaa !47
  br label %10, !llvm.loop !145

36:                                               ; preds = %10
  store i32 1, ptr %4, align 4
  store i32 1, ptr %9, align 4
  br label %37

37:                                               ; preds = %36, %31
  call void @llvm.lifetime.end.p0(i64 4, ptr %8) #13
  %38 = load i32, ptr %4, align 4
  ret i32 %38
}

; Function Attrs: nounwind uwtable
define internal ptr @mxf_get_codec_ul(ptr noundef %0, ptr noundef %1) #0 {
  %3 = alloca ptr, align 8
  %4 = alloca ptr, align 8
  store ptr %0, ptr %3, align 8, !tbaa !160
  store ptr %1, ptr %4, align 8, !tbaa !13
  br label %5

5:                                                ; preds = %23, %2
  %6 = load ptr, ptr %3, align 8, !tbaa !160
  %7 = getelementptr inbounds nuw %struct.MXFCodecUL, ptr %6, i32 0, i32 0
  %8 = getelementptr inbounds [16 x i8], ptr %7, i64 0, i64 0
  %9 = load i8, ptr %8, align 8, !tbaa !15
  %10 = icmp ne i8 %9, 0
  br i1 %10, label %11, label %26

11:                                               ; preds = %5
  %12 = load ptr, ptr %3, align 8, !tbaa !160
  %13 = getelementptr inbounds nuw %struct.MXFCodecUL, ptr %12, i32 0, i32 0
  %14 = getelementptr inbounds [16 x i8], ptr %13, i64 0, i64 0
  %15 = load ptr, ptr %4, align 8, !tbaa !13
  %16 = getelementptr inbounds [16 x i8], ptr %15, i64 0, i64 0
  %17 = load ptr, ptr %3, align 8, !tbaa !160
  %18 = getelementptr inbounds nuw %struct.MXFCodecUL, ptr %17, i32 0, i32 1
  %19 = load i32, ptr %18, align 8, !tbaa !364
  %20 = call i32 @mxf_match_uid(ptr noundef %14, ptr noundef %16, i32 noundef %19)
  %21 = icmp ne i32 %20, 0
  br i1 %21, label %22, label %23

22:                                               ; preds = %11
  br label %26

23:                                               ; preds = %11
  %24 = load ptr, ptr %3, align 8, !tbaa !160
  %25 = getelementptr inbounds nuw %struct.MXFCodecUL, ptr %24, i32 1
  store ptr %25, ptr %3, align 8, !tbaa !160
  br label %5, !llvm.loop !365

26:                                               ; preds = %22, %5
  %27 = load ptr, ptr %3, align 8, !tbaa !160
  ret ptr %27
}