; Function Attrs: nofree norecurse nosync nounwind memory(argmem: read) uwtable
define internal fastcc noundef ptr @mxf_get_codec_ul(ptr noundef readonly captures(ret: address, provenance) %0, ptr noundef readonly captures(none) %1) unnamed_addr #9 {
  %3 = load i8, ptr %0, align 8, !tbaa !12
  %.not12 = icmp eq i8 %3, 0
  br i1 %.not12, label %mxf_match_uid.exit.thread, label %.lr.ph

.lr.ph:                                           ; preds = %2, %mxf_match_uid.exit
  %.013 = phi ptr [ %13, %mxf_match_uid.exit ], [ %0, %2 ]
  %4 = getelementptr inbounds nuw i8, ptr %.013, i64 16
  %5 = load i32, ptr %4, align 8, !tbaa !121
  %6 = icmp sgt i32 %5, 0
  br i1 %6, label %.lr.ph.preheader.i, label %mxf_match_uid.exit.thread

.lr.ph.preheader.i:                               ; preds = %.lr.ph
  %wide.trip.count.i = zext nneg i32 %5 to i64
  br label %.lr.ph.i

.lr.ph.i:                                         ; preds = %12, %.lr.ph.preheader.i
  %indvars.iv.i = phi i64 [ 0, %.lr.ph.preheader.i ], [ %indvars.iv.next.i, %12 ]
  %.not.i = icmp eq i64 %indvars.iv.i, 7
  br i1 %.not.i, label %12, label %7

7:                                                ; preds = %.lr.ph.i
  %8 = getelementptr inbounds nuw i8, ptr %.013, i64 %indvars.iv.i
  %9 = load i8, ptr %8, align 1, !tbaa !12
  %10 = getelementptr inbounds nuw i8, ptr %1, i64 %indvars.iv.i
  %11 = load i8, ptr %10, align 1, !tbaa !12
  %.not9.i = icmp eq i8 %9, %11
  br i1 %.not9.i, label %12, label %mxf_match_uid.exit

12:                                               ; preds = %7, %.lr.ph.i
  %indvars.iv.next.i = add nuw nsw i64 %indvars.iv.i, 1
  %exitcond.not.i = icmp eq i64 %indvars.iv.next.i, %wide.trip.count.i
  br i1 %exitcond.not.i, label %mxf_match_uid.exit.thread, label %.lr.ph.i, !llvm.loop !48

mxf_match_uid.exit:                               ; preds = %7
  %13 = getelementptr inbounds nuw i8, ptr %.013, i64 40
  %14 = load i8, ptr %13, align 8, !tbaa !12
  %.not = icmp eq i8 %14, 0
  br i1 %.not, label %mxf_match_uid.exit.thread, label %.lr.ph, !llvm.loop !123

mxf_match_uid.exit.thread:                        ; preds = %mxf_match_uid.exit, %.lr.ph, %12, %2
  %.011 = phi ptr [ %0, %2 ], [ %.013, %12 ], [ %13, %mxf_match_uid.exit ], [ %.013, %.lr.ph ]
  ret ptr %.011
}